target datalayout = "e-m:e-p270:32:32-p271:32:32-p272:64:64-i64:64-i128:128-f80:128-n8:16:32:64-S128"
target triple = "x86_64-pc-linux-gnu"

%class.TimeInterval = type { %class.CompositeCounterRepresentation }
%class.CompositeCounterRepresentation = type { %class.Representation }
%class.Representation = type { %class.PairRep }
%class.PairRep = type { i64, i64 }
%class.TimeInstant = type { %class.CompositeCounterRepresentation }
%class.ZLock = type { %class.PlatformMutex }
%class.PlatformMutex = type { %union.pthread_mutex_t }
%union.pthread_mutex_t = type { %struct.__pthread_mutex_s }
%struct.__pthread_mutex_s = type { i32, i32, i32, i32, i32, i16, i16, %struct.__pthread_internal_list }
%struct.__pthread_internal_list = type { ptr, ptr }
%class.ZStatWorkers = type { %class.ZLock, i32, %class.TimeInstant, %class.TimeInterval, %class.TimeInterval }
%class.ZLocker = type { ptr }

; Function Attrs: mustprogress nounwind uwtable
define linkonce_odr hidden void @_ZN7PairRepIllEmIERKS0_(ptr noundef nonnull align 8 dereferenceable(16) %0, ptr noundef nonnull align 8 dereferenceable(16) %1) #1 comdat align 2 {
  %3 = alloca ptr, align 8
  %4 = alloca ptr, align 8
  store ptr %0, ptr %3, align 8
  store ptr %1, ptr %4, align 8
  %5 = load ptr, ptr %3, align 8
  %6 = load ptr, ptr %4, align 8
  %7 = getelementptr inbounds %class.PairRep, ptr %6, i32 0, i32 0
  %8 = load i64, ptr %7, align 8
  %9 = getelementptr inbounds %class.PairRep, ptr %5, i32 0, i32 0
  %10 = load i64, ptr %9, align 8
  %11 = sub nsw i64 %10, %8
  store i64 %11, ptr %9, align 8
  %12 = load ptr, ptr %4, align 8
  %13 = getelementptr inbounds %class.PairRep, ptr %12, i32 0, i32 1
  %14 = load i64, ptr %13, align 8
  %15 = getelementptr inbounds %class.PairRep, ptr %5, i32 0, i32 1
  %16 = load i64, ptr %15, align 8
  %17 = sub nsw i64 %16, %14
  store i64 %17, ptr %15, align 8
  ret void
}

; Function Attrs: mustprogress nounwind uwtable
define linkonce_odr hidden { i64, i64 } @_ZmiIllE7PairRepIT_T0_ERKS3_S5_(ptr noundef nonnull align 8 dereferenceable(16) %0, ptr noundef nonnull align 8 dereferenceable(16) %1) #1 comdat {
  %3 = alloca %class.PairRep, align 8
  %4 = alloca ptr, align 8
  %5 = alloca ptr, align 8
  store ptr %0, ptr %4, align 8
  store ptr %1, ptr %5, align 8
  %6 = load ptr, ptr %4, align 8
  call void @llvm.memcpy.p0.p0.i64(ptr align 8 %3, ptr align 8 %6, i64 16, i1 false)
  %7 = load ptr, ptr %5, align 8
  call void @_ZN7PairRepIllEmIERKS0_(ptr noundef nonnull align 8 dereferenceable(16) %3, ptr noundef nonnull align 8 dereferenceable(16) %7)
  %8 = load { i64, i64 }, ptr %3, align 8
  ret { i64, i64 } %8
}

; Function Attrs: mustprogress nounwind uwtable
define linkonce_odr hidden void @_ZN7PairRepIllEC2Ev(ptr noundef nonnull align 8 dereferenceable(16) %0) unnamed_addr #1 comdat align 2 {
  %2 = alloca ptr, align 8
  store ptr %0, ptr %2, align 8
  %3 = load ptr, ptr %2, align 8
  %4 = getelementptr inbounds %class.PairRep, ptr %3, i32 0, i32 0
  store i64 0, ptr %4, align 8
  %5 = getelementptr inbounds %class.PairRep, ptr %3, i32 0, i32 1
  store i64 0, ptr %5, align 8
  ret void
}

; Function Attrs: mustprogress nounwind uwtable
define linkonce_odr hidden void @_ZN14RepresentationI29CompositeElapsedCounterSourceEC2ERKS1_S3_(ptr noundef nonnull align 8 dereferenceable(16) %0, ptr noundef nonnull align 8 dereferenceable(16) %1, ptr noundef nonnull align 8 dereferenceable(16) %2) unnamed_addr #1 comdat align 2 {
  %4 = alloca ptr, align 8
  %5 = alloca ptr, align 8
  %6 = alloca ptr, align 8
  store ptr %0, ptr %4, align 8
  store ptr %1, ptr %5, align 8
  store ptr %2, ptr %6, align 8
  %7 = load ptr, ptr %4, align 8
  %8 = getelementptr inbounds %class.Representation, ptr %7, i32 0, i32 0
  %9 = load ptr, ptr %5, align 8
  %10 = getelementptr inbounds %class.Representation, ptr %9, i32 0, i32 0
  %11 = load ptr, ptr %6, align 8
  %12 = getelementptr inbounds %class.Representation, ptr %11, i32 0, i32 0
  %13 = call { i64, i64 } @_ZmiIllE7PairRepIT_T0_ERKS3_S5_(ptr noundef nonnull align 8 dereferenceable(16) %10, ptr noundef nonnull align 8 dereferenceable(16) %12)
  %14 = getelementptr inbounds { i64, i64 }, ptr %8, i32 0, i32 0
  %15 = extractvalue { i64, i64 } %13, 0
  store i64 %15, ptr %14, align 8
  %16 = getelementptr inbounds { i64, i64 }, ptr %8, i32 0, i32 1
  %17 = extractvalue { i64, i64 } %13, 1
  store i64 %17, ptr %16, align 8
  ret void
}

; Function Attrs: mustprogress nounwind uwtable
define linkonce_odr hidden void @_ZN14RepresentationI29CompositeElapsedCounterSourceEC2Ev(ptr noundef nonnull align 8 dereferenceable(16) %0) unnamed_addr #1 comdat align 2 {
  %2 = alloca ptr, align 8
  store ptr %0, ptr %2, align 8
  %3 = load ptr, ptr %2, align 8
  %4 = getelementptr inbounds %class.Representation, ptr %3, i32 0, i32 0
  call void @_ZN7PairRepIllEC2Ev(ptr noundef nonnull align 8 dereferenceable(16) %4)
  ret void
}

; Function Attrs: mustprogress nounwind uwtable
define linkonce_odr hidden noundef ptr @_ZN13PlatformMutex5mutexEv(ptr noundef nonnull align 8 dereferenceable(40) %0) #1 comdat align 2 {
  %2 = alloca ptr, align 8
  store ptr %0, ptr %2, align 8
  %3 = load ptr, ptr %2, align 8
  %4 = getelementptr inbounds %class.PlatformMutex, ptr %3, i32 0, i32 0
  ret ptr %4
}

; Function Attrs: mustprogress nounwind uwtable
define linkonce_odr hidden void @_ZN13PlatformMutex6unlockEv(ptr noundef nonnull align 8 dereferenceable(40) %0) #1 comdat align 2 {
  %2 = alloca ptr, align 8
  %3 = alloca i32, align 4
  store ptr %0, ptr %2, align 8
  %4 = load ptr, ptr %2, align 8
  %5 = call noundef ptr @_ZN13PlatformMutex5mutexEv(ptr noundef nonnull align 8 dereferenceable(40) %4)
  %6 = call i32 @pthread_mutex_unlock(ptr noundef %5) #5
  store i32 %6, ptr %3, align 4
  ret void
}

; Function Attrs: mustprogress nounwind uwtable
define linkonce_odr hidden void @_ZN30CompositeCounterRepresentationI29CompositeElapsedCounterSourceEC2ERKS1_S3_(ptr noundef nonnull align 8 dereferenceable(16) %0, ptr noundef nonnull align 8 dereferenceable(16) %1, ptr noundef nonnull align 8 dereferenceable(16) %2) unnamed_addr #1 comdat align 2 {
  %4 = alloca ptr, align 8
  %5 = alloca ptr, align 8
  %6 = alloca ptr, align 8
  store ptr %0, ptr %4, align 8
  store ptr %1, ptr %5, align 8
  store ptr %2, ptr %6, align 8
  %7 = load ptr, ptr %4, align 8
  %8 = load ptr, ptr %5, align 8
  %9 = load ptr, ptr %6, align 8
  call void @_ZN14RepresentationI29CompositeElapsedCounterSourceEC2ERKS1_S3_(ptr noundef nonnull align 8 dereferenceable(16) %7, ptr noundef nonnull align 8 dereferenceable(16) %8, ptr noundef nonnull align 8 dereferenceable(16) %9)
  ret void
}

; Function Attrs: mustprogress nounwind uwtable
define linkonce_odr hidden void @_ZN30CompositeCounterRepresentationI29CompositeElapsedCounterSourceEC2Ev(ptr noundef nonnull align 8 dereferenceable(16) %0) unnamed_addr #1 comdat align 2 {
  %2 = alloca ptr, align 8
  store ptr %0, ptr %2, align 8
  %3 = load ptr, ptr %2, align 8
  call void @_ZN14RepresentationI29CompositeElapsedCounterSourceEC2Ev(ptr noundef nonnull align 8 dereferenceable(16) %3)
  ret void
}

; Function Attrs: mustprogress nounwind uwtable
define linkonce_odr hidden void @_ZN13PlatformMutex4lockEv(ptr noundef nonnull align 8 dereferenceable(40) %0) #1 comdat align 2 {
  %2 = alloca ptr, align 8
  %3 = alloca i32, align 4
  store ptr %0, ptr %2, align 8
  %4 = load ptr, ptr %2, align 8
  %5 = call noundef ptr @_ZN13PlatformMutex5mutexEv(ptr noundef nonnull align 8 dereferenceable(40) %4)
  %6 = call i32 @pthread_mutex_lock(ptr noundef %5) #5
  store i32 %6, ptr %3, align 4
  ret void
}

; Function Attrs: mustprogress nounwind uwtable
define linkonce_odr hidden void @_ZN5ZLock6unlockEv(ptr noundef nonnull align 8 dereferenceable(40) %0) #1 comdat align 2 {
  %2 = alloca ptr, align 8
  store ptr %0, ptr %2, align 8
  %3 = load ptr, ptr %2, align 8
  %4 = getelementptr inbounds %class.ZLock, ptr %3, i32 0, i32 0
  call void @_ZN13PlatformMutex6unlockEv(ptr noundef nonnull align 8 dereferenceable(40) %4)
  ret void
}

; Function Attrs: mustprogress nounwind uwtable
define linkonce_odr hidden void @_ZN12TimeIntervalI30CompositeCounterRepresentation29CompositeElapsedCounterSourceEC2ERK11TimeInstantIS0_S1_ES6_(ptr noundef nonnull align 8 dereferenceable(16) %0, ptr noundef nonnull align 8 dereferenceable(16) %1, ptr noundef nonnull align 8 dereferenceable(16) %2) unnamed_addr #1 comdat align 2 {
  %4 = alloca ptr, align 8
  %5 = alloca ptr, align 8
  %6 = alloca ptr, align 8
  store ptr %0, ptr %4, align 8
  store ptr %1, ptr %5, align 8
  store ptr %2, ptr %6, align 8
  %7 = load ptr, ptr %4, align 8
  %8 = load ptr, ptr %5, align 8
  %9 = load ptr, ptr %6, align 8
  call void @_ZN30CompositeCounterRepresentationI29CompositeElapsedCounterSourceEC2ERKS1_S3_(ptr noundef nonnull align 8 dereferenceable(16) %7, ptr noundef nonnull align 8 dereferenceable(16) %8, ptr noundef nonnull align 8 dereferenceable(16) %9)
  ret void
}

; Function Attrs: mustprogress nounwind uwtable
define linkonce_odr hidden void @_ZN11TimeInstantI30CompositeCounterRepresentation29CompositeElapsedCounterSourceE5stampEv(ptr noundef nonnull align 8 dereferenceable(16) %0) #1 comdat align 2 {
  %2 = alloca ptr, align 8
  %3 = alloca %class.PairRep, align 8
  store ptr %0, ptr %2, align 8
  %4 = load ptr, ptr %2, align 8
  %5 = call { i64, i64 } @_ZN29CompositeElapsedCounterSource3nowEv()
  %6 = getelementptr inbounds { i64, i64 }, ptr %3, i32 0, i32 0
  %7 = extractvalue { i64, i64 } %5, 0
  store i64 %7, ptr %6, align 8
  %8 = getelementptr inbounds { i64, i64 }, ptr %3, i32 0, i32 1
  %9 = extractvalue { i64, i64 } %5, 1
  store i64 %9, ptr %8, align 8
  %10 = getelementptr inbounds %class.Representation, ptr %4, i32 0, i32 0
  call void @llvm.memcpy.p0.p0.i64(ptr align 8 %10, ptr align 8 %3, i64 16, i1 false)
  ret void
}

; Function Attrs: mustprogress nounwind uwtable
define linkonce_odr hidden void @_ZN11TimeInstantI30CompositeCounterRepresentation29CompositeElapsedCounterSourceEC2Ev(ptr noundef nonnull align 8 dereferenceable(16) %0) unnamed_addr #1 comdat align 2 {
  %2 = alloca ptr, align 8
  store ptr %0, ptr %2, align 8
  %3 = load ptr, ptr %2, align 8
  call void @_ZN30CompositeCounterRepresentationI29CompositeElapsedCounterSourceEC2Ev(ptr noundef nonnull align 8 dereferenceable(16) %3)
  ret void
}

; Function Attrs: mustprogress nounwind uwtable
define linkonce_odr hidden void @_ZN5ZLock4lockEv(ptr noundef nonnull align 8 dereferenceable(40) %0) #1 comdat align 2 {
  %2 = alloca ptr, align 8
  store ptr %0, ptr %2, align 8
  %3 = load ptr, ptr %2, align 8
  %4 = getelementptr inbounds %class.ZLock, ptr %3, i32 0, i32 0
  call void @_ZN13PlatformMutex4lockEv(ptr noundef nonnull align 8 dereferenceable(40) %4)
  ret void
}

; Function Attrs: mustprogress nounwind uwtable
define linkonce_odr hidden void @_ZN7ZLockerI5ZLockED2Ev(ptr noundef nonnull align 8 dereferenceable(8) %0) unnamed_addr #1 comdat align 2 {
  %2 = alloca ptr, align 8
  store ptr %0, ptr %2, align 8
  %3 = load ptr, ptr %2, align 8
  %4 = getelementptr inbounds %class.ZLocker, ptr %3, i32 0, i32 0
  %5 = load ptr, ptr %4, align 8
  %6 = icmp ne ptr %5, null
  br i1 %6, label %7, label %10

7:                                                ; preds = %1
  %8 = getelementptr inbounds %class.ZLocker, ptr %3, i32 0, i32 0
  %9 = load ptr, ptr %8, align 8
  call void @_ZN5ZLock6unlockEv(ptr noundef nonnull align 8 dereferenceable(40) %9)
  br label %10

10:                                               ; preds = %7, %1
  ret void
}

; Function Attrs: mustprogress nounwind uwtable
define linkonce_odr hidden { i64, i64 } @_ZNK11TimeInstantI30CompositeCounterRepresentation29CompositeElapsedCounterSourceEmiERKS2_(ptr noundef nonnull align 8 dereferenceable(16) %0, ptr noundef nonnull align 8 dereferenceable(16) %1) #1 comdat align 2 {
  %3 = alloca %class.TimeInterval, align 8
  %4 = alloca ptr, align 8
  %5 = alloca ptr, align 8
  store ptr %0, ptr %4, align 8
  store ptr %1, ptr %5, align 8
  %6 = load ptr, ptr %4, align 8
  %7 = load ptr, ptr %5, align 8
  call void @_ZN12TimeIntervalI30CompositeCounterRepresentation29CompositeElapsedCounterSourceEC2ERK11TimeInstantIS0_S1_ES6_(ptr noundef nonnull align 8 dereferenceable(16) %3, ptr noundef nonnull align 8 dereferenceable(16) %6, ptr noundef nonnull align 8 dereferenceable(16) %7)
  %8 = getelementptr inbounds %class.TimeInterval, ptr %3, i32 0, i32 0
  %9 = getelementptr inbounds %class.CompositeCounterRepresentation, ptr %8, i32 0, i32 0
  %10 = getelementptr inbounds %class.Representation, ptr %9, i32 0, i32 0
  %11 = load { i64, i64 }, ptr %10, align 8
  ret { i64, i64 } %11
}

; Function Attrs: mustprogress nounwind uwtable
define linkonce_odr hidden { i64, i64 } @_ZN11TimeInstantI30CompositeCounterRepresentation29CompositeElapsedCounterSourceE3nowEv() #1 comdat align 2 {
  %1 = alloca %class.TimeInstant, align 8
  call void @_ZN11TimeInstantI30CompositeCounterRepresentation29CompositeElapsedCounterSourceEC2Ev(ptr noundef nonnull align 8 dereferenceable(16) %1)
  call void @_ZN11TimeInstantI30CompositeCounterRepresentation29CompositeElapsedCounterSourceE5stampEv(ptr noundef nonnull align 8 dereferenceable(16) %1)
  %2 = getelementptr inbounds %class.TimeInstant, ptr %1, i32 0, i32 0
  %3 = getelementptr inbounds %class.CompositeCounterRepresentation, ptr %2, i32 0, i32 0
  %4 = getelementptr inbounds %class.Representation, ptr %3, i32 0, i32 0
  %5 = load { i64, i64 }, ptr %4, align 8
  ret { i64, i64 } %5
}

; Function Attrs: mustprogress nounwind uwtable
define linkonce_odr hidden noundef double @_ZNK14RepresentationI29CompositeElapsedCounterSourceE7secondsEv(ptr noundef nonnull align 8 dereferenceable(16) %0) #1 comdat align 2 {
  %2 = alloca ptr, align 8
  %3 = alloca %class.PairRep, align 8
  store ptr %0, ptr %2, align 8
  %4 = load ptr, ptr %2, align 8
  %5 = getelementptr inbounds %class.Representation, ptr %4, i32 0, i32 0
  call void @llvm.memcpy.p0.p0.i64(ptr align 8 %3, ptr align 8 %5, i64 16, i1 false)
  %6 = getelementptr inbounds { i64, i64 }, ptr %3, i32 0, i32 0
  %7 = load i64, ptr %6, align 8
  %8 = getelementptr inbounds { i64, i64 }, ptr %3, i32 0, i32 1
  %9 = load i64, ptr %8, align 8
  %10 = call noundef double @_ZN29CompositeElapsedCounterSource7secondsE7PairRepIllE(i64 %7, i64 %9)
  ret double %10
}

; Function Attrs: mustprogress nounwind uwtable
define linkonce_odr hidden void @_ZN7ZLockerI5ZLockEC2EPS0_(ptr noundef nonnull align 8 dereferenceable(8) %0, ptr noundef %1) unnamed_addr #1 comdat align 2 {
  %3 = alloca ptr, align 8
  %4 = alloca ptr, align 8
  store ptr %0, ptr %3, align 8
  store ptr %1, ptr %4, align 8
  %5 = load ptr, ptr %3, align 8
  %6 = getelementptr inbounds %class.ZLocker, ptr %5, i32 0, i32 0
  %7 = load ptr, ptr %4, align 8
  store ptr %7, ptr %6, align 8
  %8 = getelementptr inbounds %class.ZLocker, ptr %5, i32 0, i32 0
  %9 = load ptr, ptr %8, align 8
  %10 = icmp ne ptr %9, null
  br i1 %10, label %11, label %14

11:                                               ; preds = %2
  %12 = getelementptr inbounds %class.ZLocker, ptr %5, i32 0, i32 0
  %13 = load ptr, ptr %12, align 8
  call void @_ZN5ZLock4lockEv(ptr noundef nonnull align 8 dereferenceable(40) %13)
  br label %14

14:                                               ; preds = %11, %2
  ret void
}

; Function Attrs: mustprogress nounwind uwtable
define hidden noundef double @_ZN12ZStatWorkers22get_and_reset_durationEv(ptr noundef nonnull align 8 dereferenceable(96) %0) #1 align 2 {
  %2 = alloca ptr, align 8
  %3 = alloca %class.ZLocker, align 8
  %4 = alloca double, align 8
  %5 = alloca %class.TimeInstant, align 8
  %6 = alloca %class.TimeInterval, align 8
  store ptr %0, ptr %2, align 8
  %7 = load ptr, ptr %2, align 8
  %8 = getelementptr inbounds %class.ZStatWorkers, ptr %7, i32 0, i32 0
  call void @_ZN7ZLockerI5ZLockEC2EPS0_(ptr noundef nonnull align 8 dereferenceable(8) %3, ptr noundef %8)
  %9 = getelementptr inbounds %class.ZStatWorkers, ptr %7, i32 0, i32 3
  %10 = call noundef double @_ZNK14RepresentationI29CompositeElapsedCounterSourceE7secondsEv(ptr noundef nonnull align 8 dereferenceable(16) %9)
  store double %10, ptr %4, align 8
  %11 = call { i64, i64 } @_ZN11TimeInstantI30CompositeCounterRepresentation29CompositeElapsedCounterSourceE3nowEv()
  %12 = getelementptr inbounds %class.TimeInstant, ptr %5, i32 0, i32 0
  %13 = getelementptr inbounds %class.CompositeCounterRepresentation, ptr %12, i32 0, i32 0
  %14 = getelementptr inbounds %class.Representation, ptr %13, i32 0, i32 0
  %15 = getelementptr inbounds { i64, i64 }, ptr %14, i32 0, i32 0
  %16 = extractvalue { i64, i64 } %11, 0
  store i64 %16, ptr %15, align 8
  %17 = getelementptr inbounds { i64, i64 }, ptr %14, i32 0, i32 1
  %18 = extractvalue { i64, i64 } %11, 1
  store i64 %18, ptr %17, align 8
  %19 = call { i64, i64 } @_ZNK11TimeInstantI30CompositeCounterRepresentation29CompositeElapsedCounterSourceEmiERKS2_(ptr noundef nonnull align 8 dereferenceable(16) %5, ptr noundef nonnull align 8 dereferenceable(16) %5)
  %20 = getelementptr inbounds %class.TimeInterval, ptr %6, i32 0, i32 0
  %21 = getelementptr inbounds %class.CompositeCounterRepresentation, ptr %20, i32 0, i32 0
  %22 = getelementptr inbounds %class.Representation, ptr %21, i32 0, i32 0
  %23 = getelementptr inbounds { i64, i64 }, ptr %22, i32 0, i32 0
  %24 = extractvalue { i64, i64 } %19, 0
  store i64 %24, ptr %23, align 8
  %25 = getelementptr inbounds { i64, i64 }, ptr %22, i32 0, i32 1
  %26 = extractvalue { i64, i64 } %19, 1
  store i64 %26, ptr %25, align 8
  %27 = getelementptr inbounds %class.ZStatWorkers, ptr %7, i32 0, i32 3
  call void @llvm.memcpy.p0.p0.i64(ptr align 8 %27, ptr align 8 %6, i64 16, i1 false)
  %28 = load double, ptr %4, align 8
  call void @_ZN7ZLockerI5ZLockED2Ev(ptr noundef nonnull align 8 dereferenceable(8) %3) #5
  ret double %28
}