; Function Attrs: mustprogress nounwind uwtable
define hidden noundef double @_ZN12ZStatWorkers22get_and_reset_durationEv(ptr noundef nonnull align 8 dereferenceable(96) %0) local_unnamed_addr #0 align 2 {
_ZN7ZLockerI5ZLockED2Ev.exit:
  %1 = tail call i32 @pthread_mutex_lock(ptr noundef nonnull %0) #20
  %2 = getelementptr inbounds i8, ptr %0, i64 64
  %.sroa.0.0.copyload.i = load i64, ptr %2, align 8
  %.sroa.2.0..sroa_idx.i = getelementptr inbounds i8, ptr %0, i64 72
  %.sroa.2.0.copyload.i = load i64, ptr %.sroa.2.0..sroa_idx.i, align 8
  %3 = tail call noundef double @_ZN29CompositeElapsedCounterSource7secondsE7PairRepIllE(i64 %.sroa.0.0.copyload.i, i64 %.sroa.2.0.copyload.i) #20
  %4 = tail call { i64, i64 } @_ZN29CompositeElapsedCounterSource3nowEv() #20
  tail call void @llvm.memset.p0.i64(ptr noundef nonnull align 8 dereferenceable(16) %2, i8 0, i64 16, i1 false)
  %5 = tail call i32 @pthread_mutex_unlock(ptr noundef nonnull %0) #20
  ret double %3
}